target datalayout = "e-m:e-p270:32:32-p271:32:32-p272:64:64-i64:64-i128:128-f80:128-n8:16:32:64-S128"
target triple = "x86_64-pc-linux-gnu"

%struct.rb_data_type_struct = type { ptr, %struct.anon, ptr, ptr, i64 }
%struct.anon = type { ptr, ptr, ptr, ptr, [1 x ptr] }

@ID_callback_state = internal global i64 0, align 8
@ossl_ssl_ex_ptr_idx = internal global i32 0, align 4
@rb_eRuntimeError = external global i64, align 8
@dOSSL = external global i64, align 8
@stderr = external global ptr, align 8
@.str.211 = private unnamed_addr constant [13 x i8] c"OSSL_DEBUG: \00", align 1
@.str.213 = private unnamed_addr constant [10 x i8] c" [%s:%d]\0A\00", align 1
@.str.214 = private unnamed_addr constant [32 x i8] c"../../../ext/openssl/ossl_ssl.c\00", align 1
@.str.229 = private unnamed_addr constant [33 x i8] c"SSL SESSION get callback entered\00", align 1
@cSSLSession = external global i64, align 8
@ossl_ssl_session_type = external constant %struct.rb_data_type_struct, align 8
@.str.230 = private unnamed_addr constant [32 x i8] c"SSL Session wasn't initialized.\00", align 1

; Function Attrs: inlinehint nounwind sspstrong willreturn memory(none) uwtable
define internal i64 @RB_INT2FIX(i64 noundef %0) #9 {
  %2 = alloca i64, align 8
  %3 = alloca i64, align 8
  %4 = alloca i64, align 8
  %5 = alloca i64, align 8
  %6 = alloca i64, align 8
  %7 = alloca i64, align 8
  store i64 %0, ptr %2, align 8, !tbaa !14
  call void @llvm.lifetime.start.p0(i64 8, ptr %3) #20
  %8 = load i64, ptr %2, align 8, !tbaa !14
  store i64 %8, ptr %3, align 8, !tbaa !14
  call void @llvm.lifetime.start.p0(i64 8, ptr %4) #20
  %9 = load i64, ptr %3, align 8, !tbaa !14
  %10 = shl i64 %9, 1
  %11 = add i64 %10, 1
  store i64 %11, ptr %4, align 8, !tbaa !14
  call void @llvm.lifetime.start.p0(i64 8, ptr %5) #20
  %12 = load i64, ptr %4, align 8, !tbaa !14
  store i64 %12, ptr %5, align 8, !tbaa !14
  call void @llvm.lifetime.start.p0(i64 8, ptr %6) #20
  %13 = load i64, ptr %5, align 8, !tbaa !14
  store i64 %13, ptr %6, align 8, !tbaa !14
  call void @llvm.lifetime.start.p0(i64 8, ptr %7) #20
  %14 = load i64, ptr %6, align 8, !tbaa !14
  store i64 %14, ptr %7, align 8, !tbaa !14
  %15 = load i64, ptr %7, align 8, !tbaa !14
  call void @llvm.lifetime.end.p0(i64 8, ptr %7) #20
  call void @llvm.lifetime.end.p0(i64 8, ptr %6) #20
  call void @llvm.lifetime.end.p0(i64 8, ptr %5) #20
  call void @llvm.lifetime.end.p0(i64 8, ptr %4) #20
  call void @llvm.lifetime.end.p0(i64 8, ptr %3) #20
  ret i64 %15
}

; Function Attrs: inlinehint nounwind sspstrong uwtable
define internal i64 @rb_int2num_inline(i32 noundef %0) #4 {
  %2 = alloca i64, align 8
  %3 = alloca i32, align 4
  store i32 %0, ptr %3, align 4, !tbaa !12
  %4 = load i32, ptr %3, align 4, !tbaa !12
  %5 = sext i32 %4 to i64
  %6 = icmp slt i64 %5, 4611686018427387904
  br i1 %6, label %7, label %15

7:                                                ; preds = %1
  %8 = load i32, ptr %3, align 4, !tbaa !12
  %9 = sext i32 %8 to i64
  %10 = icmp sge i64 %9, -4611686018427387904
  br i1 %10, label %11, label %15

11:                                               ; preds = %7
  %12 = load i32, ptr %3, align 4, !tbaa !12
  %13 = sext i32 %12 to i64
  %14 = call i64 @RB_INT2FIX(i64 noundef %13) #23
  store i64 %14, ptr %2, align 8
  br label %19

15:                                               ; preds = %7, %1
  %16 = load i32, ptr %3, align 4, !tbaa !12
  %17 = sext i32 %16 to i64
  %18 = call i64 @rb_int2big(i64 noundef %17)
  store i64 %18, ptr %2, align 8
  br label %19

19:                                               ; preds = %15, %11
  %20 = load i64, ptr %2, align 8
  ret i64 %20
}

; Function Attrs: nounwind sspstrong uwtable
define internal ptr @ossl_sslctx_session_get_cb(ptr noundef %0, ptr noundef %1, i32 noundef %2, ptr noundef %3) #0 {
  %5 = alloca ptr, align 8
  %6 = alloca ptr, align 8
  %7 = alloca ptr, align 8
  %8 = alloca i32, align 4
  %9 = alloca ptr, align 8
  %10 = alloca i64, align 8
  %11 = alloca i64, align 8
  %12 = alloca i64, align 8
  %13 = alloca ptr, align 8
  %14 = alloca i32, align 4
  %15 = alloca i32, align 4
  store ptr %0, ptr %6, align 8, !tbaa !10
  store ptr %1, ptr %7, align 8, !tbaa !16
  store i32 %2, ptr %8, align 4, !tbaa !12
  store ptr %3, ptr %9, align 8, !tbaa !82
  call void @llvm.lifetime.start.p0(i64 8, ptr %10) #20
  call void @llvm.lifetime.start.p0(i64 8, ptr %11) #20
  call void @llvm.lifetime.start.p0(i64 8, ptr %12) #20
  call void @llvm.lifetime.start.p0(i64 8, ptr %13) #20
  call void @llvm.lifetime.start.p0(i64 4, ptr %14) #20
  store i32 0, ptr %14, align 4, !tbaa !12
  br label %16

16:                                               ; preds = %4
  %17 = load i64, ptr @dOSSL, align 8, !tbaa !14
  %18 = icmp eq i64 %17, 20
  br i1 %18, label %19, label %26

19:                                               ; preds = %16
  %20 = load ptr, ptr @stderr, align 8, !tbaa !41
  %21 = call i32 (ptr, i32, ptr, ...) @__fprintf_chk(ptr noundef %20, i32 noundef 1, ptr noundef @.str.211)
  %22 = load ptr, ptr @stderr, align 8, !tbaa !41
  %23 = call i32 (ptr, i32, ptr, ...) @__fprintf_chk(ptr noundef %22, i32 noundef 1, ptr noundef @.str.229)
  %24 = load ptr, ptr @stderr, align 8, !tbaa !41
  %25 = call i32 (ptr, i32, ptr, ...) @__fprintf_chk(ptr noundef %24, i32 noundef 1, ptr noundef @.str.213, ptr noundef @.str.214, i32 noundef 262)
  br label %26

26:                                               ; preds = %19, %16
  br label %27

27:                                               ; preds = %26
  br label %28

28:                                               ; preds = %27
  %29 = load ptr, ptr %6, align 8, !tbaa !10
  %30 = load i32, ptr @ossl_ssl_ex_ptr_idx, align 4, !tbaa !12
  %31 = call ptr @SSL_get_ex_data(ptr noundef %29, i32 noundef %30)
  %32 = ptrtoint ptr %31 to i64
  store i64 %32, ptr %11, align 8, !tbaa !14
  %33 = call i64 @rb_ary_new_capa(i64 noundef 2)
  store i64 %33, ptr %10, align 8, !tbaa !14
  %34 = load i64, ptr %10, align 8, !tbaa !14
  %35 = load i64, ptr %11, align 8, !tbaa !14
  %36 = call i64 @rb_ary_push(i64 noundef %34, i64 noundef %35)
  %37 = load i64, ptr %10, align 8, !tbaa !14
  br i1 false, label %38, label %41

38:                                               ; preds = %28
  %39 = load i32, ptr %8, align 4, !tbaa !12
  %40 = call i1 @llvm.is.constant.i32(i32 %39)
  br label %41

41:                                               ; preds = %38, %28
  %42 = phi i1 [ false, %28 ], [ %40, %38 ]
  %43 = select i1 %42, ptr @rb_str_new_static, ptr @rb_str_new
  %44 = load ptr, ptr %7, align 8, !tbaa !16
  %45 = load i32, ptr %8, align 4, !tbaa !12
  %46 = sext i32 %45 to i64
  %47 = call i64 %43(ptr noundef %44, i64 noundef %46)
  %48 = call i64 @rb_ary_push(i64 noundef %37, i64 noundef %47)
  %49 = load i64, ptr %10, align 8, !tbaa !14
  %50 = call i64 @rb_protect(ptr noundef @ossl_call_session_get_cb, i64 noundef %49, ptr noundef %14)
  store i64 %50, ptr %12, align 8, !tbaa !14
  %51 = load i32, ptr %14, align 4, !tbaa !12
  %52 = icmp ne i32 %51, 0
  br i1 %52, label %53, label %59

53:                                               ; preds = %41
  %54 = load i64, ptr %11, align 8, !tbaa !14
  %55 = load i64, ptr @ID_callback_state, align 8, !tbaa !14
  %56 = load i32, ptr %14, align 4, !tbaa !12
  %57 = call i64 @rb_int2num_inline(i32 noundef %56)
  %58 = call i64 @rb_ivar_set(i64 noundef %54, i64 noundef %55, i64 noundef %57)
  store ptr null, ptr %5, align 8
  store i32 1, ptr %15, align 4
  br label %78

59:                                               ; preds = %41
  %60 = load i64, ptr %12, align 8, !tbaa !14
  %61 = load i64, ptr @cSSLSession, align 8, !tbaa !14
  %62 = call i64 @rb_obj_is_instance_of(i64 noundef %60, i64 noundef %61)
  %63 = icmp ne i64 %62, 0
  br i1 %63, label %65, label %64

64:                                               ; preds = %59
  store ptr null, ptr %5, align 8
  store i32 1, ptr %15, align 4
  br label %78

65:                                               ; preds = %59
  br label %66

66:                                               ; preds = %65
  %67 = load i64, ptr %12, align 8, !tbaa !14
  %68 = call ptr @rb_check_typeddata(i64 noundef %67, ptr noundef @ossl_ssl_session_type)
  store ptr %68, ptr %13, align 8, !tbaa !43
  %69 = load ptr, ptr %13, align 8, !tbaa !43
  %70 = icmp ne ptr %69, null
  br i1 %70, label %73, label %71

71:                                               ; preds = %66
  %72 = load i64, ptr @rb_eRuntimeError, align 8, !tbaa !14
  call void (i64, ptr, ...) @ossl_raise(i64 noundef %72, ptr noundef @.str.230) #22
  unreachable

73:                                               ; preds = %66
  br label %74

74:                                               ; preds = %73
  br label %75

75:                                               ; preds = %74
  %76 = load ptr, ptr %9, align 8, !tbaa !82
  store i32 1, ptr %76, align 4, !tbaa !12
  %77 = load ptr, ptr %13, align 8, !tbaa !43
  store ptr %77, ptr %5, align 8
  store i32 1, ptr %15, align 4
  br label %78

78:                                               ; preds = %75, %64, %53
  call void @llvm.lifetime.end.p0(i64 4, ptr %14) #20
  call void @llvm.lifetime.end.p0(i64 8, ptr %13) #20
  call void @llvm.lifetime.end.p0(i64 8, ptr %12) #20
  call void @llvm.lifetime.end.p0(i64 8, ptr %11) #20
  call void @llvm.lifetime.end.p0(i64 8, ptr %10) #20
  %79 = load ptr, ptr %5, align 8
  ret ptr %79
}