; Function Attrs: nounwind sspstrong uwtable
define internal ptr @ossl_sslctx_session_get_cb(ptr noundef %0, ptr noundef %1, i32 noundef %2, ptr noundef writeonly captures(none) %3) #0 {
  %5 = alloca i32, align 4
  call void @llvm.lifetime.start.p0(i64 4, ptr nonnull %5) #9
  store i32 0, ptr %5, align 4, !tbaa !6
  %6 = load i64, ptr @dOSSL, align 8, !tbaa !10
  %7 = icmp eq i64 %6, 20
  br i1 %7, label %8, label %15

8:                                                ; preds = %4
  %9 = load ptr, ptr @stderr, align 8, !tbaa !32
  %10 = tail call i32 (ptr, i32, ptr, ...) @__fprintf_chk(ptr noundef %9, i32 noundef 1, ptr noundef nonnull @.str.211) #9
  %11 = load ptr, ptr @stderr, align 8, !tbaa !32
  %12 = tail call i32 (ptr, i32, ptr, ...) @__fprintf_chk(ptr noundef %11, i32 noundef 1, ptr noundef nonnull @.str.229) #9
  %13 = load ptr, ptr @stderr, align 8, !tbaa !32
  %14 = tail call i32 (ptr, i32, ptr, ...) @__fprintf_chk(ptr noundef %13, i32 noundef 1, ptr noundef nonnull @.str.213, ptr noundef nonnull @.str.214, i32 noundef 262) #9
  br label %15

15:                                               ; preds = %8, %4
  %16 = load i32, ptr @ossl_ssl_ex_ptr_idx, align 4, !tbaa !6
  %17 = tail call ptr @SSL_get_ex_data(ptr noundef %0, i32 noundef %16) #9
  %18 = ptrtoint ptr %17 to i64
  %19 = tail call i64 @rb_ary_new_capa(i64 noundef 2) #9
  %20 = tail call i64 @rb_ary_push(i64 noundef %19, i64 noundef %18) #9
  %21 = sext i32 %2 to i64
  %22 = tail call i64 @rb_str_new(ptr noundef %1, i64 noundef %21) #9
  %23 = tail call i64 @rb_ary_push(i64 noundef %19, i64 noundef %22) #9
  %24 = call i64 @rb_protect(ptr noundef nonnull @ossl_call_session_get_cb, i64 noundef %19, ptr noundef nonnull %5) #9
  %25 = load i32, ptr %5, align 4, !tbaa !6
  %.not = icmp eq i32 %25, 0
  br i1 %.not, label %32, label %26

26:                                               ; preds = %15
  %27 = load i64, ptr @ID_callback_state, align 8, !tbaa !10
  %28 = sext i32 %25 to i64
  %29 = shl nsw i64 %28, 1
  %30 = or disjoint i64 %29, 1
  %31 = call i64 @rb_ivar_set(i64 noundef %18, i64 noundef %27, i64 noundef %30) #9
  br label %40

32:                                               ; preds = %15
  %33 = load i64, ptr @cSSLSession, align 8, !tbaa !10
  %34 = call i64 @rb_obj_is_instance_of(i64 noundef %24, i64 noundef %33) #9
  %.not15 = icmp eq i64 %34, 0
  br i1 %.not15, label %40, label %35

35:                                               ; preds = %32
  %36 = call ptr @rb_check_typeddata(i64 noundef %24, ptr noundef nonnull @ossl_ssl_session_type) #9
  %.not16 = icmp eq ptr %36, null
  br i1 %.not16, label %37, label %39

37:                                               ; preds = %35
  %38 = load i64, ptr @rb_eRuntimeError, align 8, !tbaa !10
  call void (i64, ptr, ...) @ossl_raise(i64 noundef %38, ptr noundef nonnull @.str.230) #10
  unreachable

39:                                               ; preds = %35
  store i32 1, ptr %3, align 4, !tbaa !6
  br label %40

40:                                               ; preds = %32, %39, %26
  %.0 = phi ptr [ null, %26 ], [ %36, %39 ], [ null, %32 ]
  call void @llvm.lifetime.end.p0(i64 4, ptr nonnull %5) #9
  ret ptr %.0
}